target datalayout = "e-m:e-p270:32:32-p271:32:32-p272:64:64-i64:64-i128:128-f80:128-n8:16:32:64-S128"
target triple = "x86_64-unknown-linux-gnu"

%struct.E1000State_st = type { %struct.PCIDevice, ptr, %struct.NICConf, %struct.MemoryRegion, %struct.MemoryRegion, [32768 x i32], [32 x i16], [64 x i16], i32, i32, %struct.e1000_tx, %struct.anon, ptr, ptr, i8, i8, i32, ptr, i32, i8, i8, %struct.e1000x_txd_props }
%struct.PCIDevice = type { %struct.DeviceState, i8, i8, ptr, ptr, ptr, ptr, ptr, i32, %struct.PCIReqIDCache, [64 x i8], [7 x %struct.PCIIORegion], %struct.AddressSpace, %struct.MemoryRegion, %struct.MemoryRegion, ptr, ptr, [3 x ptr], i8, i8, i32, i8, i32, ptr, ptr, ptr, ptr, ptr, ptr, %struct.MemoryRegion, %struct.MemoryRegion, %struct.MemoryRegion, ptr, i8, i32, i8, %struct.PCIExpressDevice, ptr, ptr, i32, i8, %struct.MemoryRegion, i32, ptr, ptr, ptr, ptr, ptr, i32 }
%struct.DeviceState = type { %struct.Object, ptr, ptr, i8, i8, i64, ptr, i32, i8, ptr, %struct.NamedGPIOListHead, %struct.NamedClockListHead, %struct.BusStateHead, i32, i32, i32, %struct.ResettableState, ptr, %struct.MemReentrancyGuard }
%struct.Object = type { ptr, ptr, ptr, i32, ptr }
%struct.NamedGPIOListHead = type { ptr }
%struct.NamedClockListHead = type { ptr }
%struct.BusStateHead = type { ptr }
%struct.ResettableState = type { i32, i8, i8 }
%struct.MemReentrancyGuard = type { i8 }
%struct.PCIReqIDCache = type { ptr, i32 }
%struct.PCIIORegion = type { i64, i64, i8, ptr, ptr }
%struct.AddressSpace = type { %struct.rcu_head, ptr, ptr, ptr, i32, i32, ptr, %union.anon, %union.anon.0 }
%struct.rcu_head = type { ptr, ptr }
%union.anon = type { %struct.QTailQLink }
%struct.QTailQLink = type { ptr, ptr }
%union.anon.0 = type { %struct.QTailQLink }
%struct.PCIExpressDevice = type { i8, i8, i8, i16, %struct.PCIEAERLog, i16, i16, i16, %struct.PCIESriovPF, %struct.PCIESriovVF }
%struct.PCIEAERLog = type { i16, i16, ptr }
%struct.PCIESriovPF = type { i16, [7 x i8], ptr, ptr }
%struct.PCIESriovVF = type { ptr, i16 }
%struct.NICConf = type { %struct.MACAddr, %struct.NICPeers, i32 }
%struct.MACAddr = type { [6 x i8] }
%struct.NICPeers = type { [1024 x ptr], i32 }
%struct.MemoryRegion = type { %struct.Object, i8, i8, i8, i8, i8, i8, i8, i8, i8, i8, ptr, ptr, ptr, ptr, ptr, ptr, i32, i128, i64, ptr, i64, i8, i8, i8, i8, i8, ptr, i64, i32, %union.anon.1, %union.anon.2, %union.anon.3, ptr, i32, ptr, ptr, i8 }
%union.anon.1 = type { %struct.QTailQLink }
%union.anon.2 = type { %struct.QTailQLink }
%union.anon.3 = type { %struct.QTailQLink }
%struct.e1000_tx = type { [256 x i8], [4 x i8], [4 x i8], [65536 x i8], i16, i8, i8, i8, %struct.e1000x_txd_props, %struct.e1000x_txd_props, i16, i8 }
%struct.anon = type { i32, i16, i16, i16, i32 }
%struct.e1000x_txd_props = type { i8, i8, i16, i8, i8, i16, i32, i8, i16, i8, i8, i8 }

; Function Attrs: nounwind sspstrong uwtable
define internal i32 @flash_eerd_read(ptr noundef %s, i32 noundef %x) #0 {
entry:
  %retval = alloca i32, align 4
  %s.addr = alloca ptr, align 8
  %x.addr = alloca i32, align 4
  %index = alloca i32, align 4
  %r = alloca i32, align 4
  store ptr %s, ptr %s.addr, align 8
  store i32 %x, ptr %x.addr, align 4
  %0 = load ptr, ptr %s.addr, align 8
  %mac_reg = getelementptr inbounds %struct.E1000State_st, ptr %0, i32 0, i32 5
  %arrayidx = getelementptr [32768 x i32], ptr %mac_reg, i64 0, i64 5
  %1 = load i32, ptr %arrayidx, align 4
  %and = and i32 %1, -2
  store i32 %and, ptr %r, align 4
  %2 = load ptr, ptr %s.addr, align 8
  %mac_reg1 = getelementptr inbounds %struct.E1000State_st, ptr %2, i32 0, i32 5
  %arrayidx2 = getelementptr [32768 x i32], ptr %mac_reg1, i64 0, i64 5
  %3 = load i32, ptr %arrayidx2, align 4
  %and3 = and i32 %3, 1
  %cmp = icmp eq i32 %and3, 0
  br i1 %cmp, label %if.then, label %if.end

if.then:                                          ; preds = %entry
  %4 = load ptr, ptr %s.addr, align 8
  %mac_reg4 = getelementptr inbounds %struct.E1000State_st, ptr %4, i32 0, i32 5
  %arrayidx5 = getelementptr [32768 x i32], ptr %mac_reg4, i64 0, i64 5
  %5 = load i32, ptr %arrayidx5, align 4
  store i32 %5, ptr %retval, align 4
  br label %return

if.end:                                           ; preds = %entry
  %6 = load i32, ptr %r, align 4
  %shr = lshr i32 %6, 8
  store i32 %shr, ptr %index, align 4
  %cmp6 = icmp ugt i32 %shr, 63
  br i1 %cmp6, label %if.then7, label %if.end8

if.then7:                                         ; preds = %if.end
  %7 = load i32, ptr %r, align 4
  %or = or i32 16, %7
  store i32 %or, ptr %retval, align 4
  br label %return

if.end8:                                          ; preds = %if.end
  %8 = load ptr, ptr %s.addr, align 8
  %eeprom_data = getelementptr inbounds %struct.E1000State_st, ptr %8, i32 0, i32 7
  %9 = load i32, ptr %index, align 4
  %idxprom = zext i32 %9 to i64
  %arrayidx9 = getelementptr [64 x i16], ptr %eeprom_data, i64 0, i64 %idxprom
  %10 = load i16, ptr %arrayidx9, align 2
  %conv = zext i16 %10 to i32
  %shl = shl i32 %conv, 16
  %or10 = or i32 %shl, 16
  %11 = load i32, ptr %r, align 4
  %or11 = or i32 %or10, %11
  store i32 %or11, ptr %retval, align 4
  br label %return

return:                                           ; preds = %if.end8, %if.then7, %if.then
  %12 = load i32, ptr %retval, align 4
  ret i32 %12
}