; Function Attrs: mustprogress nofree norecurse nosync nounwind sspstrong willreturn memory(argmem: read) uwtable
define internal i32 @flash_eerd_read(ptr noundef readonly captures(none) %s, i32 %x) #4 {
entry:
  %arrayidx = getelementptr i8, ptr %s, i64 11396
  %0 = load i32, ptr %arrayidx, align 4
  %and = and i32 %0, -2
  %and3 = and i32 %0, 1
  %cmp = icmp eq i32 %and3, 0
  br i1 %cmp, label %return, label %if.end

if.end:                                           ; preds = %entry
  %cmp6 = icmp ugt i32 %0, 16383
  br i1 %cmp6, label %if.then7, label %if.end8

if.then7:                                         ; preds = %if.end
  %or = or i32 %and, 16
  br label %return

if.end8:                                          ; preds = %if.end
  %shr = lshr i32 %0, 8
  %eeprom_data = getelementptr inbounds nuw i8, ptr %s, i64 142512
  %idxprom = zext nneg i32 %shr to i64
  %arrayidx9 = getelementptr [64 x i16], ptr %eeprom_data, i64 0, i64 %idxprom
  %1 = load i16, ptr %arrayidx9, align 2
  %conv = zext i16 %1 to i32
  %shl = shl nuw i32 %conv, 16
  %or10 = or disjoint i32 %shl, %and
  %or11 = or i32 %or10, 16
  br label %return

return:                                           ; preds = %entry, %if.end8, %if.then7
  %retval.0 = phi i32 [ %or, %if.then7 ], [ %or11, %if.end8 ], [ %0, %entry ]
  ret i32 %retval.0
}